target datalayout = "e-m:e-p270:32:32-p271:32:32-p272:64:64-i64:64-i128:128-f80:128-n8:16:32:64-S128"
target triple = "x86_64-pc-linux-gnu"

%struct.deparse_context = type { ptr, ptr, ptr, ptr, ptr, i32, i32, i32, i8, i8, i8, i8, ptr }
%struct.Node = type { i32 }
%struct.Expr = type { i32 }
%struct.TargetEntry = type { %struct.Expr, ptr, i16, ptr, i32, i32, i16, i8 }

@.str.202 = private unnamed_addr constant [3 x i8] c"%d\00", align 1

; Function Attrs: nounwind uwtable
define internal ptr @get_rule_sortgroupclause(i32 noundef %0, ptr noundef %1, i1 noundef zeroext %2, ptr noundef %3) #0 {
  %5 = alloca i32, align 4
  %6 = alloca ptr, align 8
  %7 = alloca i8, align 1
  %8 = alloca ptr, align 8
  %9 = alloca ptr, align 8
  %10 = alloca ptr, align 8
  %11 = alloca ptr, align 8
  %12 = alloca i8, align 1
  %13 = alloca i8, align 1
  store i32 %0, ptr %5, align 4
  store ptr %1, ptr %6, align 8
  %14 = zext i1 %2 to i8
  store i8 %14, ptr %7, align 1
  store ptr %3, ptr %8, align 8
  call void @llvm.lifetime.start.p0(i64 8, ptr %9) #10
  %15 = load ptr, ptr %8, align 8
  %16 = getelementptr inbounds nuw %struct.deparse_context, ptr %15, i32 0, i32 0
  %17 = load ptr, ptr %16, align 8
  store ptr %17, ptr %9, align 8
  call void @llvm.lifetime.start.p0(i64 8, ptr %10) #10
  call void @llvm.lifetime.start.p0(i64 8, ptr %11) #10
  %18 = load i32, ptr %5, align 4
  %19 = load ptr, ptr %6, align 8
  %20 = call ptr @get_sortgroupref_tle(i32 noundef %18, ptr noundef %19)
  store ptr %20, ptr %10, align 8
  %21 = load ptr, ptr %10, align 8
  %22 = getelementptr inbounds nuw %struct.TargetEntry, ptr %21, i32 0, i32 1
  %23 = load ptr, ptr %22, align 8
  store ptr %23, ptr %11, align 8
  %24 = load i8, ptr %7, align 1, !range !4, !noundef !5
  %25 = trunc i8 %24 to i1
  br i1 %25, label %26, label %32

26:                                               ; preds = %4
  %27 = load ptr, ptr %9, align 8
  %28 = load ptr, ptr %10, align 8
  %29 = getelementptr inbounds nuw %struct.TargetEntry, ptr %28, i32 0, i32 2
  %30 = load i16, ptr %29, align 8
  %31 = sext i16 %30 to i32
  call void (ptr, ptr, ...) @appendStringInfo(ptr noundef %27, ptr noundef @.str.202, i32 noundef %31)
  br label %113

32:                                               ; preds = %4
  %33 = load ptr, ptr %11, align 8
  %34 = icmp ne ptr %33, null
  br i1 %34, label %36, label %35

35:                                               ; preds = %32
  br label %112

36:                                               ; preds = %32
  %37 = load ptr, ptr %11, align 8
  %38 = getelementptr inbounds nuw %struct.Node, ptr %37, i32 0, i32 0
  %39 = load i32, ptr %38, align 4
  %40 = icmp eq i32 %39, 7
  br i1 %40, label %41, label %44

41:                                               ; preds = %36
  %42 = load ptr, ptr %11, align 8
  %43 = load ptr, ptr %8, align 8
  call void @get_const_expr(ptr noundef %42, ptr noundef %43, i32 noundef 1)
  br label %111

44:                                               ; preds = %36
  %45 = load ptr, ptr %11, align 8
  %46 = getelementptr inbounds nuw %struct.Node, ptr %45, i32 0, i32 0
  %47 = load i32, ptr %46, align 4
  %48 = icmp eq i32 %47, 6
  br i1 %48, label %49, label %65

49:                                               ; preds = %44
  call void @llvm.lifetime.start.p0(i64 1, ptr %12) #10
  %50 = load ptr, ptr %8, align 8
  %51 = getelementptr inbounds nuw %struct.deparse_context, ptr %50, i32 0, i32 11
  %52 = load i8, ptr %51, align 1, !range !4, !noundef !5
  %53 = trunc i8 %52 to i1
  %54 = zext i1 %53 to i8
  store i8 %54, ptr %12, align 1
  %55 = load ptr, ptr %8, align 8
  %56 = getelementptr inbounds nuw %struct.deparse_context, ptr %55, i32 0, i32 11
  store i8 1, ptr %56, align 1
  %57 = load ptr, ptr %11, align 8
  %58 = load ptr, ptr %8, align 8
  %59 = call ptr @get_variable(ptr noundef %57, i32 noundef 0, i1 noundef zeroext false, ptr noundef %58)
  %60 = load i8, ptr %12, align 1, !range !4, !noundef !5
  %61 = trunc i8 %60 to i1
  %62 = load ptr, ptr %8, align 8
  %63 = getelementptr inbounds nuw %struct.deparse_context, ptr %62, i32 0, i32 11
  %64 = zext i1 %61 to i8
  store i8 %64, ptr %63, align 1
  call void @llvm.lifetime.end.p0(i64 1, ptr %12) #10
  br label %110

65:                                               ; preds = %44
  call void @llvm.lifetime.start.p0(i64 1, ptr %13) #10
  %66 = load ptr, ptr %8, align 8
  %67 = getelementptr inbounds nuw %struct.deparse_context, ptr %66, i32 0, i32 5
  %68 = load i32, ptr %67, align 8
  %69 = and i32 %68, 1
  %70 = icmp ne i32 %69, 0
  br i1 %70, label %91, label %71

71:                                               ; preds = %65
  %72 = load ptr, ptr %11, align 8
  %73 = getelementptr inbounds nuw %struct.Node, ptr %72, i32 0, i32 0
  %74 = load i32, ptr %73, align 4
  %75 = icmp eq i32 %74, 15
  br i1 %75, label %91, label %76

76:                                               ; preds = %71
  %77 = load ptr, ptr %11, align 8
  %78 = getelementptr inbounds nuw %struct.Node, ptr %77, i32 0, i32 0
  %79 = load i32, ptr %78, align 4
  %80 = icmp eq i32 %79, 9
  br i1 %80, label %91, label %81

81:                                               ; preds = %76
  %82 = load ptr, ptr %11, align 8
  %83 = getelementptr inbounds nuw %struct.Node, ptr %82, i32 0, i32 0
  %84 = load i32, ptr %83, align 4
  %85 = icmp eq i32 %84, 11
  br i1 %85, label %91, label %86

86:                                               ; preds = %81
  %87 = load ptr, ptr %11, align 8
  %88 = getelementptr inbounds nuw %struct.Node, ptr %87, i32 0, i32 0
  %89 = load i32, ptr %88, align 4
  %90 = icmp eq i32 %89, 45
  br label %91

91:                                               ; preds = %86, %81, %76, %71, %65
  %92 = phi i1 [ true, %81 ], [ true, %76 ], [ true, %71 ], [ true, %65 ], [ %90, %86 ]
  %93 = zext i1 %92 to i8
  store i8 %93, ptr %13, align 1
  %94 = load i8, ptr %13, align 1, !range !4, !noundef !5
  %95 = trunc i8 %94 to i1
  br i1 %95, label %96, label %100

96:                                               ; preds = %91
  %97 = load ptr, ptr %8, align 8
  %98 = getelementptr inbounds nuw %struct.deparse_context, ptr %97, i32 0, i32 0
  %99 = load ptr, ptr %98, align 8
  call void @appendStringInfoChar(ptr noundef %99, i8 noundef signext 40)
  br label %100

100:                                              ; preds = %96, %91
  %101 = load ptr, ptr %11, align 8
  %102 = load ptr, ptr %8, align 8
  call void @get_rule_expr(ptr noundef %101, ptr noundef %102, i1 noundef zeroext true)
  %103 = load i8, ptr %13, align 1, !range !4, !noundef !5
  %104 = trunc i8 %103 to i1
  br i1 %104, label %105, label %109

105:                                              ; preds = %100
  %106 = load ptr, ptr %8, align 8
  %107 = getelementptr inbounds nuw %struct.deparse_context, ptr %106, i32 0, i32 0
  %108 = load ptr, ptr %107, align 8
  call void @appendStringInfoChar(ptr noundef %108, i8 noundef signext 41)
  br label %109

109:                                              ; preds = %105, %100
  call void @llvm.lifetime.end.p0(i64 1, ptr %13) #10
  br label %110

110:                                              ; preds = %109, %49
  br label %111

111:                                              ; preds = %110, %41
  br label %112

112:                                              ; preds = %111, %35
  br label %113

113:                                              ; preds = %112, %26
  %114 = load ptr, ptr %11, align 8
  call void @llvm.lifetime.end.p0(i64 8, ptr %11) #10
  call void @llvm.lifetime.end.p0(i64 8, ptr %10) #10
  call void @llvm.lifetime.end.p0(i64 8, ptr %9) #10
  ret ptr %114
}