; Function Attrs: nounwind uwtable
define internal fastcc ptr @get_rule_sortgroupclause(i32 noundef %0, ptr noundef %1, i1 noundef zeroext %2, ptr noundef %3) unnamed_addr #0 {
  %5 = load ptr, ptr %3, align 8
  %6 = tail call ptr @get_sortgroupref_tle(i32 noundef %0, ptr noundef %1) #11
  %7 = getelementptr inbounds nuw i8, ptr %6, i64 8
  %8 = load ptr, ptr %7, align 8
  br i1 %2, label %9, label %13

9:                                                ; preds = %4
  %10 = getelementptr inbounds nuw i8, ptr %6, i64 16
  %11 = load i16, ptr %10, align 8
  %12 = sext i16 %11 to i32
  tail call void (ptr, ptr, ...) @appendStringInfo(ptr noundef %5, ptr noundef nonnull @.str.202, i32 noundef %12) #11
  br label %27

13:                                               ; preds = %4
  %.not = icmp eq ptr %8, null
  br i1 %.not, label %27, label %14

14:                                               ; preds = %13
  %15 = load i32, ptr %8, align 4
  switch i32 %15, label %21 [
    i32 7, label %16
    i32 6, label %17
  ]

16:                                               ; preds = %14
  tail call fastcc void @get_const_expr(ptr noundef nonnull %8, ptr noundef nonnull %3, i32 noundef 1)
  br label %27

17:                                               ; preds = %14
  %18 = getelementptr inbounds nuw i8, ptr %3, i64 55
  %19 = load i8, ptr %18, align 1, !range !7, !noundef !8
  store i8 1, ptr %18, align 1
  %20 = tail call fastcc ptr @get_variable(ptr noundef %8, i32 noundef 0, i1 noundef zeroext false, ptr noundef nonnull %3)
  store i8 %19, ptr %18, align 1
  br label %27

21:                                               ; preds = %14
  %22 = getelementptr inbounds nuw i8, ptr %3, i64 40
  %23 = load i32, ptr %22, align 8
  %.fr34 = freeze i32 %23
  %24 = and i32 %.fr34, 1
  %.not30.not = icmp eq i32 %24, 0
  br i1 %.not30.not, label %switch.early.test, label %.critedge33

switch.early.test:                                ; preds = %21
  switch i32 %15, label %switch.edge [
    i32 15, label %.critedge33
    i32 11, label %.critedge33
    i32 9, label %.critedge33
    i32 45, label %.critedge33
  ]

switch.edge:                                      ; preds = %switch.early.test
  tail call fastcc void @get_rule_expr(ptr noundef nonnull %8, ptr noundef nonnull %3, i1 noundef zeroext true)
  br label %27

.critedge33:                                      ; preds = %21, %switch.early.test, %switch.early.test, %switch.early.test, %switch.early.test
  %25 = load ptr, ptr %3, align 8
  tail call void @appendStringInfoChar(ptr noundef %25, i8 noundef signext 40) #11
  tail call fastcc void @get_rule_expr(ptr noundef nonnull %8, ptr noundef nonnull %3, i1 noundef zeroext true)
  %26 = load ptr, ptr %3, align 8
  tail call void @appendStringInfoChar(ptr noundef %26, i8 noundef signext 41) #11
  br label %27

27:                                               ; preds = %.critedge33, %switch.edge, %13, %17, %16, %9
  ret ptr %8
}